; ModuleID = '21/950.c'
source_filename = "21/950.c"
target datalayout = "e-m:e-p270:32:32-p271:32:32-p272:64:64-i64:64-f80:128-n8:16:32:64-S128"
target triple = "x86_64-pc-linux-gnu"

@.str = private unnamed_addr constant [3 x i8] c"%d\00", align 1
@.str.1 = private unnamed_addr constant [4 x i8] c",%d\00", align 1

; Function Attrs: noinline nounwind uwtable
define dso_local i32 @main() #0 {
  %1 = alloca i32, align 4
  %2 = alloca double, align 8
  %3 = alloca double, align 8
  %4 = alloca i32, align 4
  %5 = alloca i32, align 4
  %6 = alloca i32, align 4
  %7 = alloca i32, align 4
  %8 = alloca i32, align 4
  %9 = alloca [305 x i32], align 16
  %10 = alloca [305 x double], align 16
  store i32 0, i32* %1, align 4
  %11 = bitcast [305 x i32]* %9 to i8*
  call void @llvm.memset.p0i8.i64(i8* align 16 %11, i8 0, i64 1220, i1 false)
  %12 = bitcast [305 x double]* %10 to i8*
  call void @llvm.memset.p0i8.i64(i8* align 16 %12, i8 0, i64 2440, i1 false)
  %13 = call i32 (i8*, ...) @__isoc99_scanf(i8* getelementptr inbounds ([3 x i8], [3 x i8]* @.str, i64 0, i64 0), i32* %4)
  store i32 0, i32* %8, align 4
  store i32 0, i32* %5, align 4
  br label %14

14:                                               ; preds = %37, %0
  %15 = load i32, i32* %5, align 4
  %16 = load i32, i32* %4, align 4
  %17 = icmp slt i32 %15, %16
  br i1 %17, label %18, label %40

18:                                               ; preds = %14
  %19 = load i32, i32* %5, align 4
  %20 = sext i32 %19 to i64
  %21 = getelementptr inbounds [305 x i32], [305 x i32]* %9, i64 0, i64 %20
  %22 = call i32 (i8*, ...) @__isoc99_scanf(i8* getelementptr inbounds ([3 x i8], [3 x i8]* @.str, i64 0, i64 0), i32* %21)
  %23 = load i32, i32* %5, align 4
  %24 = sext i32 %23 to i64
  %25 = getelementptr inbounds [305 x i32], [305 x i32]* %9, i64 0, i64 %24
  %26 = load i32, i32* %25, align 4
  %27 = call i32 @abs(i32 %26) #5
  %28 = load i32, i32* %5, align 4
  %29 = sext i32 %28 to i64
  %30 = getelementptr inbounds [305 x i32], [305 x i32]* %9, i64 0, i64 %29
  store i32 %27, i32* %30, align 4
  %31 = load i32, i32* %8, align 4
  %32 = load i32, i32* %5, align 4
  %33 = sext i32 %32 to i64
  %34 = getelementptr inbounds [305 x i32], [305 x i32]* %9, i64 0, i64 %33
  %35 = load i32, i32* %34, align 4
  %36 = add nsw i32 %31, %35
  store i32 %36, i32* %8, align 4
  br label %37

37:                                               ; preds = %18
  %38 = load i32, i32* %5, align 4
  %39 = add nsw i32 %38, 1
  store i32 %39, i32* %5, align 4
  br label %14

40:                                               ; preds = %14
  %41 = load i32, i32* %8, align 4
  %42 = sitofp i32 %41 to double
  %43 = load i32, i32* %4, align 4
  %44 = sitofp i32 %43 to double
  %45 = fdiv double %42, %44
  store double %45, double* %2, align 8
  store i32 0, i32* %5, align 4
  br label %46

46:                                               ; preds = %69, %40
  %47 = load i32, i32* %5, align 4
  %48 = load i32, i32* %4, align 4
  %49 = icmp slt i32 %47, %48
  br i1 %49, label %50, label %72

50:                                               ; preds = %46
  %51 = load double, double* %2, align 8
  %52 = load i32, i32* %5, align 4
  %53 = sext i32 %52 to i64
  %54 = getelementptr inbounds [305 x i32], [305 x i32]* %9, i64 0, i64 %53
  %55 = load i32, i32* %54, align 4
  %56 = sitofp i32 %55 to double
  %57 = fsub double %51, %56
  %58 = load i32, i32* %5, align 4
  %59 = sext i32 %58 to i64
  %60 = getelementptr inbounds [305 x double], [305 x double]* %10, i64 0, i64 %59
  store double %57, double* %60, align 8
  %61 = load i32, i32* %5, align 4
  %62 = sext i32 %61 to i64
  %63 = getelementptr inbounds [305 x double], [305 x double]* %10, i64 0, i64 %62
  %64 = load double, double* %63, align 8
  %65 = call double @llvm.fabs.f64(double %64)
  %66 = load i32, i32* %5, align 4
  %67 = sext i32 %66 to i64
  %68 = getelementptr inbounds [305 x double], [305 x double]* %10, i64 0, i64 %67
  store double %65, double* %68, align 8
  br label %69

69:                                               ; preds = %50
  %70 = load i32, i32* %5, align 4
  %71 = add nsw i32 %70, 1
  store i32 %71, i32* %5, align 4
  br label %46

72:                                               ; preds = %46
  store i32 0, i32* %6, align 4
  br label %73

73:                                               ; preds = %136, %72
  %74 = load i32, i32* %6, align 4
  %75 = load i32, i32* %4, align 4
  %76 = sub nsw i32 %75, 1
  %77 = icmp slt i32 %74, %76
  br i1 %77, label %78, label %139

78:                                               ; preds = %73
  store i32 0, i32* %5, align 4
  br label %79

79:                                               ; preds = %132, %78
  %80 = load i32, i32* %5, align 4
  %81 = load i32, i32* %4, align 4
  %82 = load i32, i32* %6, align 4
  %83 = sub nsw i32 %81, %82
  %84 = icmp slt i32 %80, %83
  br i1 %84, label %85, label %135

85:                                               ; preds = %79
  %86 = load i32, i32* %5, align 4
  %87 = sext i32 %86 to i64
  %88 = getelementptr inbounds [305 x double], [305 x double]* %10, i64 0, i64 %87
  %89 = load double, double* %88, align 8
  %90 = load i32, i32* %5, align 4
  %91 = add nsw i32 %90, 1
  %92 = sext i32 %91 to i64
  %93 = getelementptr inbounds [305 x double], [305 x double]* %10, i64 0, i64 %92
  %94 = load double, double* %93, align 8
  %95 = fcmp olt double %89, %94
  br i1 %95, label %96, label %131

96:                                               ; preds = %85
  %97 = load i32, i32* %5, align 4
  %98 = sext i32 %97 to i64
  %99 = getelementptr inbounds [305 x i32], [305 x i32]* %9, i64 0, i64 %98
  %100 = load i32, i32* %99, align 4
  store i32 %100, i32* %7, align 4
  %101 = load i32, i32* %5, align 4
  %102 = add nsw i32 %101, 1
  %103 = sext i32 %102 to i64
  %104 = getelementptr inbounds [305 x i32], [305 x i32]* %9, i64 0, i64 %103
  %105 = load i32, i32* %104, align 4
  %106 = load i32, i32* %5, align 4
  %107 = sext i32 %106 to i64
  %108 = getelementptr inbounds [305 x i32], [305 x i32]* %9, i64 0, i64 %107
  store i32 %105, i32* %108, align 4
  %109 = load i32, i32* %7, align 4
  %110 = load i32, i32* %5, align 4
  %111 = add nsw i32 %110, 1
  %112 = sext i32 %111 to i64
  %113 = getelementptr inbounds [305 x i32], [305 x i32]* %9, i64 0, i64 %112
  store i32 %109, i32* %113, align 4
  %114 = load i32, i32* %5, align 4
  %115 = sext i32 %114 to i64
  %116 = getelementptr inbounds [305 x double], [305 x double]* %10, i64 0, i64 %115
  %117 = load double, double* %116, align 8
  store double %117, double* %3, align 8
  %118 = load i32, i32* %5, align 4
  %119 = add nsw i32 %118, 1
  %120 = sext i32 %119 to i64
  %121 = getelementptr inbounds [305 x double], [305 x double]* %10, i64 0, i64 %120
  %122 = load double, double* %121, align 8
  %123 = load i32, i32* %5, align 4
  %124 = sext i32 %123 to i64
  %125 = getelementptr inbounds [305 x double], [305 x double]* %10, i64 0, i64 %124
  store double %122, double* %125, align 8
  %126 = load double, double* %3, align 8
  %127 = load i32, i32* %5, align 4
  %128 = add nsw i32 %127, 1
  %129 = sext i32 %128 to i64
  %130 = getelementptr inbounds [305 x double], [305 x double]* %10, i64 0, i64 %129
  store double %126, double* %130, align 8
  br label %131

131:                                              ; preds = %96, %85
  br label %132

132:                                              ; preds = %131
  %133 = load i32, i32* %5, align 4
  %134 = add nsw i32 %133, 1
  store i32 %134, i32* %5, align 4
  br label %79

135:                                              ; preds = %79
  br label %136

136:                                              ; preds = %135
  %137 = load i32, i32* %6, align 4
  %138 = add nsw i32 %137, 1
  store i32 %138, i32* %6, align 4
  br label %73

139:                                              ; preds = %73
  %140 = getelementptr inbounds [305 x i32], [305 x i32]* %9, i64 0, i64 0
  %141 = load i32, i32* %140, align 16
  %142 = call i32 (i8*, ...) @printf(i8* getelementptr inbounds ([3 x i8], [3 x i8]* @.str, i64 0, i64 0), i32 %141)
  store i32 1, i32* %5, align 4
  br label %143

143:                                              ; preds = %163, %139
  %144 = load i32, i32* %5, align 4
  %145 = load i32, i32* %4, align 4
  %146 = icmp slt i32 %144, %145
  br i1 %146, label %147, label %166

147:                                              ; preds = %143
  %148 = load i32, i32* %5, align 4
  %149 = sext i32 %148 to i64
  %150 = getelementptr inbounds [305 x double], [305 x double]* %10, i64 0, i64 %149
  %151 = load double, double* %150, align 8
  %152 = getelementptr inbounds [305 x double], [305 x double]* %10, i64 0, i64 0
  %153 = load double, double* %152, align 16
  %154 = fcmp oeq double %151, %153
  br i1 %154, label %155, label %161

155:                                              ; preds = %147
  %156 = load i32, i32* %5, align 4
  %157 = sext i32 %156 to i64
  %158 = getelementptr inbounds [305 x i32], [305 x i32]* %9, i64 0, i64 %157
  %159 = load i32, i32* %158, align 4
  %160 = call i32 (i8*, ...) @printf(i8* getelementptr inbounds ([4 x i8], [4 x i8]* @.str.1, i64 0, i64 0), i32 %159)
  br label %162

161:                                              ; preds = %147
  br label %166

162:                                              ; preds = %155
  br label %163

163:                                              ; preds = %162
  %164 = load i32, i32* %5, align 4
  %165 = add nsw i32 %164, 1
  store i32 %165, i32* %5, align 4
  br label %143

166:                                              ; preds = %161, %143
  %167 = load i32, i32* %1, align 4
  ret i32 %167
}

; Function Attrs: argmemonly nounwind willreturn
declare void @llvm.memset.p0i8.i64(i8* nocapture writeonly, i8, i64, i1 immarg) #1

declare dso_local i32 @__isoc99_scanf(i8*, ...) #2

; Function Attrs: nounwind readnone
declare dso_local i32 @abs(i32) #3

; Function Attrs: nounwind readnone speculatable willreturn
declare double @llvm.fabs.f64(double) #4

declare dso_local i32 @printf(i8*, ...) #2


!llvm.module.flags = !{!0}
!llvm.ident = !{!1}

!0 = !{i32 1, !"wchar_size", i32 4}
!1 = !{!"clang version 10.0.0-4ubuntu1 "}
